; Function Attrs: mustprogress nounwind uwtable
define dso_local void @_ZNK4node4quic19StatelessResetToken8ToStringB5cxx11Ev(ptr noalias sret(%"class.std::__cxx11::basic_string") align 8 %agg.result, ptr nocapture noundef nonnull readonly align 8 dereferenceable(32) %this) local_unnamed_addr #3 align 2 {
entry:
  %dest = alloca [32 x i8], align 16
  %ref.tmp = alloca %"class.std::allocator", align 1
  %ptr_ = getelementptr inbounds i8, ptr %this, i64 8
  %0 = load ptr, ptr %ptr_, align 8
  %cmp = icmp eq ptr %0, null
  br i1 %cmp, label %if.then, label %if.end

if.then:                                          ; preds = %entry
  tail call void @_ZNSt7__cxx1112basic_stringIcSt11char_traitsIcESaIcEEC1Ev(ptr noundef nonnull align 8 dereferenceable(32) %agg.result) #17
  br label %return

if.end:                                           ; preds = %entry
  %call3 = call noundef i64 @_ZN4node11StringBytes10hex_encodeEPKcmPcm(ptr noundef nonnull %0, i64 noundef 16, ptr noundef nonnull %dest, i64 noundef 32) #17
  call void @_ZNSaIcEC1Ev(ptr noundef nonnull align 1 dereferenceable(1) %ref.tmp) #17
  call void @_ZNSt7__cxx1112basic_stringIcSt11char_traitsIcESaIcEEC1EPKcmRKS3_(ptr noundef nonnull align 8 dereferenceable(32) %agg.result, ptr noundef nonnull %dest, i64 noundef %call3, ptr noundef nonnull align 1 dereferenceable(1) %ref.tmp) #17
  call void @_ZNSaIcED1Ev(ptr noundef nonnull align 1 dereferenceable(1) %ref.tmp) #17
  br label %return

return:                                           ; preds = %if.end, %if.then
  ret void
}